(dp0
I1
I31
sI2
I2476
sI3
I31
sI4
I968
sI5
I2016
sI6
I1792
sI7
I2052
sI8
I5241
sI9
I2359
sI10
I12
sI11
I895
sI12
I1828
sI13
I1878
sI14
I5098
sI15
I3992
sI16
I1347
sI17
I3165
sI18
I2820
sI19
I2622
sI20
I2265
sI21
I1002
sI22
I733
sI23
I1343
sI24
I1073
sI25
I2541
sI26
I1472
sI27
I1166
sI28
I24
sI29
I985
sI30
I1483
sI31
I1818
sI32
I670
sI33
I1083
sI34
I632
sI35
I791
sI36
I355
sI37
I1455
sI38
I377
sI39
I557
sI40
I436
sI41
I1138
sI42
I1714
sI43
I1153
sI44
I921
sI45
I799
sI46
I353
sI47
I674
sI48
I1557
sI49
I59
sI50
I398
sI51
I216
sI52
I178
sI53
I44
sI54
I31
sI55
I111
sI56
I23
sI57
I76
sI58
I243
sI59
I9
sI60
I256
sI61
I95
sI62
I128
sI63
I93
sI64
I86
sI65
I62
sI66
I13
sI67
I10
sI68
I13
sI69
I55
sI70
I72
sI71
I62
sI72
I81
sI73
I180
sI74
I99
sI75
I1
sI76
I217
sI77
I198
sI78
I38
sI79
I20
sI80
I66
sI81
I27
sI82
I110
sI83
I22
sI84
I15
sI85
I18
sI86
I35
sI87
I49
sI88
I28
sI89
I79
sI90
I24
sI91
I14
sI92
I8
sI93
I17
sI94
I11
sI95
I21
sI96
I28
sI97
I8
sI98
I25
sI99
I2
sI100
I29
sI101
I8
sI102
I7
sI103
I16
sI104
I1
sI105
I8
sI106
I4
sI107
I6
sI108
I1
sI109
I1
sI110
I1
sI111
I1
sI112
I1
sI113
I19
sI114
I20
sI115
I25
sI116
I34
sI117
I16
sI118
I14
sI119
I16
sI120
I14
sI121
I26
sI122
I12
sI123
I12
sI124
I9
sI125
I12
s.